; Function Attrs: inlinehint mustprogress nounwind uwtable
define internal void @_ZZZNK12_GLOBAL__N_117GFluidBackendImpl7compileERKN3ade5GraphERKSt6vectorIN2cv11GCompileArgESaIS7_EERKS5_INS1_6HandleINS1_4NodeEEESaISE_EEENKUlmSt8functionIFvmEEE_clEmSL_EN4BodyD0Ev(ptr noundef nonnull align 8 dereferenceable(40) initializes((0, 8)) %0) unnamed_addr #6 align 2 personality ptr @__gxx_personality_v0 {
  store ptr getelementptr inbounds nuw inrange(-16, 24) (i8, ptr @_ZTVZZNK12_GLOBAL__N_117GFluidBackendImpl7compileERKN3ade5GraphERKSt6vectorIN2cv11GCompileArgESaIS7_EERKS5_INS1_6HandleINS1_4NodeEEESaISE_EEENKUlmSt8functionIFvmEEE_clEmSL_E4Body, i64 16), ptr %0, align 8, !tbaa !13
  %2 = getelementptr inbounds nuw i8, ptr %0, i64 24
  %3 = load ptr, ptr %2, align 8, !tbaa !130
  %.not.i.i = icmp eq ptr %3, null
  br i1 %.not.i.i, label %_ZZZNK12_GLOBAL__N_117GFluidBackendImpl7compileERKN3ade5GraphERKSt6vectorIN2cv11GCompileArgESaIS7_EERKS5_INS1_6HandleINS1_4NodeEEESaISE_EEENKUlmSt8functionIFvmEEE_clEmSL_EN4BodyD2Ev.exit, label %4

4:                                                ; preds = %1
  %5 = getelementptr inbounds nuw i8, ptr %0, i64 8
  %6 = invoke noundef zeroext i1 %3(ptr noundef nonnull align 8 dereferenceable(32) %5, ptr noundef nonnull align 8 dereferenceable(32) %5, i32 noundef 3)
          to label %_ZZZNK12_GLOBAL__N_117GFluidBackendImpl7compileERKN3ade5GraphERKSt6vectorIN2cv11GCompileArgESaIS7_EERKS5_INS1_6HandleINS1_4NodeEEESaISE_EEENKUlmSt8functionIFvmEEE_clEmSL_EN4BodyD2Ev.exit unwind label %7

7:                                                ; preds = %4
  %8 = landingpad { ptr, i32 }
          catch ptr null
  %9 = extractvalue { ptr, i32 } %8, 0
  tail call void @__clang_call_terminate(ptr %9) #37
  unreachable

_ZZZNK12_GLOBAL__N_117GFluidBackendImpl7compileERKN3ade5GraphERKSt6vectorIN2cv11GCompileArgESaIS7_EERKS5_INS1_6HandleINS1_4NodeEEESaISE_EEENKUlmSt8functionIFvmEEE_clEmSL_EN4BodyD2Ev.exit: ; preds = %1, %4
  tail call void @_ZN2cv16ParallelLoopBodyD2Ev(ptr noundef nonnull align 8 dereferenceable(40) %0) #32
  tail call void @_ZdlPv(ptr noundef nonnull %0) #34
  ret void
}